target datalayout = "e-m:e-p270:32:32-p271:32:32-p272:64:64-i64:64-i128:128-f80:128-n8:16:32:64-S128"
target triple = "x86_64-pc-linux-gnu"

%struct.anon = type { [3 x double] }
%struct._generic_N_Vector = type { ptr, ptr, ptr }
%struct._N_VectorContent_Serial = type { i64, i32, ptr }

; Function Attrs: nounwind uwtable
define internal i32 @f(double noundef %0, ptr noundef %1, ptr noundef %2, ptr noundef %3) #0 {
  %5 = alloca double, align 8
  %6 = alloca ptr, align 8
  %7 = alloca ptr, align 8
  %8 = alloca ptr, align 8
  %9 = alloca double, align 8
  %10 = alloca double, align 8
  %11 = alloca double, align 8
  %12 = alloca double, align 8
  %13 = alloca double, align 8
  %14 = alloca ptr, align 8
  %15 = alloca double, align 8
  %16 = alloca double, align 8
  %17 = alloca double, align 8
  store double %0, ptr %5, align 8, !tbaa !20
  store ptr %1, ptr %6, align 8, !tbaa !12
  store ptr %2, ptr %7, align 8, !tbaa !12
  store ptr %3, ptr %8, align 8, !tbaa !11
  call void @llvm.lifetime.start.p0(i64 8, ptr %9) #8
  call void @llvm.lifetime.start.p0(i64 8, ptr %10) #8
  call void @llvm.lifetime.start.p0(i64 8, ptr %11) #8
  call void @llvm.lifetime.start.p0(i64 8, ptr %12) #8
  call void @llvm.lifetime.start.p0(i64 8, ptr %13) #8
  call void @llvm.lifetime.start.p0(i64 8, ptr %14) #8
  call void @llvm.lifetime.start.p0(i64 8, ptr %15) #8
  call void @llvm.lifetime.start.p0(i64 8, ptr %16) #8
  call void @llvm.lifetime.start.p0(i64 8, ptr %17) #8
  %18 = load ptr, ptr %6, align 8, !tbaa !12
  %19 = getelementptr inbounds nuw %struct._generic_N_Vector, ptr %18, i32 0, i32 0
  %20 = load ptr, ptr %19, align 8, !tbaa !24
  %21 = getelementptr inbounds nuw %struct._N_VectorContent_Serial, ptr %20, i32 0, i32 2
  %22 = load ptr, ptr %21, align 8, !tbaa !27
  %23 = getelementptr inbounds double, ptr %22, i64 0
  %24 = load double, ptr %23, align 8, !tbaa !20
  store double %24, ptr %9, align 8, !tbaa !20
  %25 = load ptr, ptr %6, align 8, !tbaa !12
  %26 = getelementptr inbounds nuw %struct._generic_N_Vector, ptr %25, i32 0, i32 0
  %27 = load ptr, ptr %26, align 8, !tbaa !24
  %28 = getelementptr inbounds nuw %struct._N_VectorContent_Serial, ptr %27, i32 0, i32 2
  %29 = load ptr, ptr %28, align 8, !tbaa !27
  %30 = getelementptr inbounds double, ptr %29, i64 1
  %31 = load double, ptr %30, align 8, !tbaa !20
  store double %31, ptr %10, align 8, !tbaa !20
  %32 = load ptr, ptr %6, align 8, !tbaa !12
  %33 = getelementptr inbounds nuw %struct._generic_N_Vector, ptr %32, i32 0, i32 0
  %34 = load ptr, ptr %33, align 8, !tbaa !24
  %35 = getelementptr inbounds nuw %struct._N_VectorContent_Serial, ptr %34, i32 0, i32 2
  %36 = load ptr, ptr %35, align 8, !tbaa !27
  %37 = getelementptr inbounds double, ptr %36, i64 2
  %38 = load double, ptr %37, align 8, !tbaa !20
  store double %38, ptr %11, align 8, !tbaa !20
  %39 = load ptr, ptr %8, align 8, !tbaa !11
  store ptr %39, ptr %14, align 8, !tbaa !11
  %40 = load ptr, ptr %14, align 8, !tbaa !11
  %41 = getelementptr inbounds nuw %struct.anon, ptr %40, i32 0, i32 0
  %42 = getelementptr inbounds [3 x double], ptr %41, i64 0, i64 0
  %43 = load double, ptr %42, align 8, !tbaa !20
  store double %43, ptr %15, align 8, !tbaa !20
  %44 = load ptr, ptr %14, align 8, !tbaa !11
  %45 = getelementptr inbounds nuw %struct.anon, ptr %44, i32 0, i32 0
  %46 = getelementptr inbounds [3 x double], ptr %45, i64 0, i64 1
  %47 = load double, ptr %46, align 8, !tbaa !20
  store double %47, ptr %16, align 8, !tbaa !20
  %48 = load ptr, ptr %14, align 8, !tbaa !11
  %49 = getelementptr inbounds nuw %struct.anon, ptr %48, i32 0, i32 0
  %50 = getelementptr inbounds [3 x double], ptr %49, i64 0, i64 2
  %51 = load double, ptr %50, align 8, !tbaa !20
  store double %51, ptr %17, align 8, !tbaa !20
  %52 = load double, ptr %15, align 8, !tbaa !20
  %53 = fneg double %52
  %54 = load double, ptr %9, align 8, !tbaa !20
  %55 = load double, ptr %16, align 8, !tbaa !20
  %56 = load double, ptr %10, align 8, !tbaa !20
  %57 = fmul double %55, %56
  %58 = load double, ptr %11, align 8, !tbaa !20
  %59 = fmul double %57, %58
  %60 = call double @llvm.fmuladd.f64(double %53, double %54, double %59)
  %61 = load ptr, ptr %7, align 8, !tbaa !12
  %62 = getelementptr inbounds nuw %struct._generic_N_Vector, ptr %61, i32 0, i32 0
  %63 = load ptr, ptr %62, align 8, !tbaa !24
  %64 = getelementptr inbounds nuw %struct._N_VectorContent_Serial, ptr %63, i32 0, i32 2
  %65 = load ptr, ptr %64, align 8, !tbaa !27
  %66 = getelementptr inbounds double, ptr %65, i64 0
  store double %60, ptr %66, align 8, !tbaa !20
  store double %60, ptr %12, align 8, !tbaa !20
  %67 = load double, ptr %17, align 8, !tbaa !20
  %68 = load double, ptr %10, align 8, !tbaa !20
  %69 = fmul double %67, %68
  %70 = load double, ptr %10, align 8, !tbaa !20
  %71 = fmul double %69, %70
  %72 = load ptr, ptr %7, align 8, !tbaa !12
  %73 = getelementptr inbounds nuw %struct._generic_N_Vector, ptr %72, i32 0, i32 0
  %74 = load ptr, ptr %73, align 8, !tbaa !24
  %75 = getelementptr inbounds nuw %struct._N_VectorContent_Serial, ptr %74, i32 0, i32 2
  %76 = load ptr, ptr %75, align 8, !tbaa !27
  %77 = getelementptr inbounds double, ptr %76, i64 2
  store double %71, ptr %77, align 8, !tbaa !20
  store double %71, ptr %13, align 8, !tbaa !20
  %78 = load double, ptr %12, align 8, !tbaa !20
  %79 = fneg double %78
  %80 = load double, ptr %13, align 8, !tbaa !20
  %81 = fsub double %79, %80
  %82 = load ptr, ptr %7, align 8, !tbaa !12
  %83 = getelementptr inbounds nuw %struct._generic_N_Vector, ptr %82, i32 0, i32 0
  %84 = load ptr, ptr %83, align 8, !tbaa !24
  %85 = getelementptr inbounds nuw %struct._N_VectorContent_Serial, ptr %84, i32 0, i32 2
  %86 = load ptr, ptr %85, align 8, !tbaa !27
  %87 = getelementptr inbounds double, ptr %86, i64 1
  store double %81, ptr %87, align 8, !tbaa !20
  call void @llvm.lifetime.end.p0(i64 8, ptr %17) #8
  call void @llvm.lifetime.end.p0(i64 8, ptr %16) #8
  call void @llvm.lifetime.end.p0(i64 8, ptr %15) #8
  call void @llvm.lifetime.end.p0(i64 8, ptr %14) #8
  call void @llvm.lifetime.end.p0(i64 8, ptr %13) #8
  call void @llvm.lifetime.end.p0(i64 8, ptr %12) #8
  call void @llvm.lifetime.end.p0(i64 8, ptr %11) #8
  call void @llvm.lifetime.end.p0(i64 8, ptr %10) #8
  call void @llvm.lifetime.end.p0(i64 8, ptr %9) #8
  ret i32 0
}