; Function Attrs: mustprogress nofree norecurse nosync nounwind willreturn memory(readwrite, inaccessiblemem: none) uwtable
define internal noundef i32 @f(double %0, ptr noundef readonly captures(none) %1, ptr noundef readonly captures(none) %2, ptr noundef readonly captures(none) %3) #4 {
  %5 = load ptr, ptr %1, align 8, !tbaa !15
  %6 = getelementptr inbounds nuw i8, ptr %5, i64 16
  %7 = load ptr, ptr %6, align 8, !tbaa !18
  %8 = load double, ptr %7, align 8, !tbaa !11
  %9 = getelementptr inbounds nuw i8, ptr %7, i64 8
  %10 = load double, ptr %9, align 8, !tbaa !11
  %11 = getelementptr inbounds nuw i8, ptr %7, i64 16
  %12 = load double, ptr %11, align 8, !tbaa !11
  %13 = load double, ptr %3, align 8, !tbaa !11
  %14 = getelementptr inbounds nuw i8, ptr %3, i64 8
  %15 = load double, ptr %14, align 8, !tbaa !11
  %16 = getelementptr inbounds nuw i8, ptr %3, i64 16
  %17 = load double, ptr %16, align 8, !tbaa !11
  %18 = fneg double %13
  %19 = fmul double %10, %15
  %20 = fmul double %12, %19
  %21 = tail call double @llvm.fmuladd.f64(double %18, double %8, double %20)
  %22 = load ptr, ptr %2, align 8, !tbaa !15
  %23 = getelementptr inbounds nuw i8, ptr %22, i64 16
  %24 = load ptr, ptr %23, align 8, !tbaa !18
  store double %21, ptr %24, align 8, !tbaa !11
  %25 = fmul double %10, %17
  %26 = fmul double %10, %25
  %27 = getelementptr inbounds nuw i8, ptr %24, i64 16
  store double %26, ptr %27, align 8, !tbaa !11
  %28 = fneg double %21
  %29 = fsub double %28, %26
  %30 = getelementptr inbounds nuw i8, ptr %24, i64 8
  store double %29, ptr %30, align 8, !tbaa !11
  ret i32 0
}